Certificate:
    Data:
        Version: 3 (0x2)
        Serial Number:
            35:be:79:fb:5a:aa:ea:2c:b0:c2:86:46:0d:80:be:af:d4:58:cc:85
        Signature Algorithm: sha256WithRSAEncryption
        Issuer: C=US, ST=North Carolina, L=Raleigh, O=Katello, OU=SomeOrgUnit, CN=katello.edsonmanners.com
        Validity
            Not Before: May 15 13:11:17 2026 GMT
            Not After : Jan 18 13:11:18 2038 GMT
        Subject: C=US, ST=North Carolina, O=FOREMAN, OU=PUPPET, CN=katello.edsonmanners.com
        Subject Public Key Info:
            Public Key Algorithm: rsaEncryption
                Public-Key: (4096 bit)
                Modulus:
                    00:a3:b9:45:5c:f5:17:73:e8:67:ac:39:6c:94:66:
                    a8:c6:c5:a8:e4:9b:68:47:4b:3d:cc:eb:27:43:8a:
                    9c:fd:fa:d7:2b:f0:11:03:60:c3:63:9f:76:7b:4f:
                    10:8a:f1:67:c0:78:a3:02:7f:d8:21:44:ec:95:94:
                    c5:94:8a:9e:3a:2a:2a:d5:c1:9e:4d:d7:a4:43:f9:
                    d5:60:3b:67:37:ac:26:4d:e6:d7:d0:ed:90:81:55:
                    33:f6:97:67:1f:04:57:d3:7e:68:cf:95:79:f2:f1:
                    13:04:56:34:9a:fe:73:e2:7a:55:e7:1a:cc:1a:0f:
                    cf:f4:5a:d6:6c:51:62:70:3a:e1:4f:8a:76:c1:b5:
                    cd:06:78:be:83:2b:a0:ef:41:f8:5b:37:be:c4:0f:
                    da:69:81:26:29:aa:28:26:ba:ac:b5:c0:4e:52:f7:
                    19:c1:56:01:48:0f:9f:89:e5:30:2a:45:ec:8a:ec:
                    80:97:24:bb:35:70:29:f1:e8:93:f8:e5:a8:1c:e3:
                    8d:e6:9e:d1:56:2e:7d:2c:b6:d6:33:75:ff:f6:91:
                    69:c9:66:09:e7:94:b4:de:a5:fc:1d:7d:c3:0d:86:
                    13:34:23:22:f9:a3:39:4f:3f:f1:87:7d:d8:7f:d0:
                    78:a7:33:16:b8:34:b1:f0:0f:8a:71:85:40:0f:44:
                    31:d1:ca:61:27:2e:83:f5:a0:7c:65:0a:63:8d:fd:
                    87:77:e9:55:01:3b:06:a6:25:ad:d5:fa:52:e2:d0:
                    84:63:1c:66:11:5c:a0:c6:61:a0:ca:43:9b:63:67:
                    e5:ba:f2:57:01:85:4b:fc:75:d6:4b:ad:24:78:6c:
                    14:39:da:dd:43:ed:18:b9:c2:37:e7:cc:a7:e4:c6:
                    f6:f5:a0:b2:da:5c:13:e0:b2:13:e8:e6:49:a5:c9:
                    9e:d8:71:74:a8:36:6e:46:82:fd:d2:26:3f:5c:1e:
                    28:a0:91:ab:aa:60:aa:d7:81:67:28:03:1f:c4:a0:
                    60:ca:ac:60:27:d3:ec:d3:9d:2b:7e:34:d7:29:23:
                    c9:eb:12:73:64:b1:d3:ba:a2:18:b7:89:b2:53:b6:
                    0a:f7:37:c3:1e:56:09:94:89:79:54:55:60:f8:85:
                    ca:ae:09:f9:d6:9d:ab:fb:06:aa:07:d3:2c:98:e4:
                    46:6d:21:d7:c1:3c:2a:a3:93:87:f3:21:17:aa:c3:
                    e9:2d:f1:0a:ef:a4:3f:3a:e7:24:3a:5f:e1:ef:37:
                    4a:77:d0:fb:b5:6f:3b:dc:05:f7:17:42:de:d5:90:
                    6e:cb:52:5a:0b:f1:8f:0f:35:e5:a1:77:c8:ac:27:
                    d9:e8:00:17:d1:69:ea:b6:6b:64:d4:04:c7:bc:17:
                    b2:d1:25
                Exponent: 65537 (0x10001)
        X509v3 extensions:
            X509v3 Basic Constraints: 
                CA:FALSE
            X509v3 Key Usage: 
                Digital Signature, Key Encipherment
            X509v3 Extended Key Usage: 
                TLS Web Server Authentication, TLS Web Client Authentication
            Netscape Cert Type: 
                SSL Client
            Netscape Comment: 
                Katello SSL Tool Generated Certificate
            X509v3 Subject Key Identifier: 
                3B:7B:4C:6D:37:4E:1F:29:74:42:11:FB:29:18:8E:67:3D:08:41:FE
            X509v3 Authority Key Identifier: 
                keyid:8A:B8:C7:3A:27:25:F6:97:B4:A4:56:8C:42:D1:AB:C2:AE:37:B9:9D
                DirName:/C=US/ST=North Carolina/L=Raleigh/O=Katello/OU=SomeOrgUnit/CN=katello.edsonmanners.com
                serial:35:BE:79:FB:5A:AA:EA:2C:B0:C2:86:46:0D:80:BE:AF:D4:58:CC:83
            X509v3 Subject Alternative Name: 
                DNS:katello.edsonmanners.com
    Signature Algorithm: sha256WithRSAEncryption
    Signature Value:
        68:ec:b3:aa:6b:97:ae:a8:5a:2b:6f:f7:a8:6f:bf:a8:50:a1:
        41:c6:c6:01:cc:fb:54:96:40:5c:39:a9:d5:84:0f:4e:0d:d9:
        c2:da:01:8d:5d:02:20:35:d2:f9:4d:55:59:37:21:e3:89:de:
        dd:42:c2:41:af:a6:61:bf:7d:95:b5:d1:dc:3b:22:2d:ef:ac:
        4d:b3:76:c9:1b:94:7b:2e:0a:36:27:ad:fa:c0:bd:b2:35:9c:
        ae:fe:54:4e:c3:a1:67:83:f1:5b:df:a0:c1:36:c8:19:2b:f6:
        8c:63:1a:01:dd:ea:d3:df:28:14:b5:c1:03:dc:3c:cc:11:85:
        59:6d:ef:76:92:51:75:20:ad:11:c7:8a:67:12:55:3c:2e:aa:
        a3:0b:83:4b:92:82:f1:14:d0:93:d7:1d:77:4c:a9:75:cc:92:
        cc:3f:6a:d6:dc:2b:8f:a7:c9:8a:e6:1c:d5:f8:d3:03:0b:0e:
        68:a0:70:da:bd:43:33:2f:d6:db:30:7f:c3:7f:1c:4c:c0:51:
        f8:9d:0a:5a:49:66:4b:be:46:8b:fa:41:bb:b1:38:21:29:fb:
        70:75:56:87:4c:0d:11:ce:38:a6:e8:ae:76:c9:71:a4:b0:93:
        8d:a9:fd:66:e0:64:51:34:6a:78:31:70:bd:f5:67:bf:8e:32:
        e4:70:11:22:a7:c5:29:e6:5d:e0:8d:7d:c7:0a:5f:df:0c:5c:
        7d:50:e0:14:39:7c:d1:31:02:e3:2b:01:5c:4d:c2:e6:80:d0:
        d0:d2:5a:78:91:0a:49:76:aa:8f:1e:c1:29:2e:3b:d3:90:05:
        36:ca:7e:51:d9:49:82:cc:17:ac:2b:bc:2e:9d:29:aa:4f:5f:
        74:8a:73:b7:c4:29:ec:aa:ac:2d:59:6a:a8:78:8c:cb:ff:77:
        c8:e9:65:51:c7:31:99:87:9c:60:b3:de:01:8f:0e:79:85:7b:
        2e:60:81:30:7c:c2:88:e6:b1:cf:a7:75:bd:a0:48:68:f9:47:
        12:5d:b4:bc:1b:f4:26:4e:37:22:b2:35:09:a7:a9:76:85:79:
        e7:41:ee:1d:7a:d0:d9:9e:ce:63:a2:44:3b:72:68:21:89:97:
        8f:d4:06:25:cc:13:34:29:c5:42:30:48:84:75:df:42:1c:b7:
        35:a0:06:61:76:31:25:ad:1d:35:e1:1e:ce:2b:95:8b:f6:32:
        30:1b:85:43:26:74:50:da:e1:65:ca:8d:7d:b3:df:c3:d9:07:
        92:d6:86:05:68:08:12:59:05:dc:8c:47:32:22:12:c9:cf:33:
        c8:7a:2e:1e:e8:b4:58:11:18:f7:43:29:cf:8a:e0:8c:87:65:
        79:ac:7c:8a:e2:48:75:46
-----BEGIN CERTIFICATE-----
MIIHDzCCBPegAwIBAgIUNb55+1qq6iywwoZGDYC+r9RYzIUwDQYJKoZIhvcNAQEL
BQAwgYMxCzAJBgNVBAYTAlVTMRcwFQYDVQQIDA5Ob3J0aCBDYXJvbGluYTEQMA4G
A1UEBwwHUmFsZWlnaDEQMA4GA1UECgwHS2F0ZWxsbzEUMBIGA1UECwwLU29tZU9y
Z1VuaXQxITAfBgNVBAMMGGthdGVsbG8uZWRzb25tYW5uZXJzLmNvbTAeFw0yNjA1
MTUxMzExMTdaFw0zODAxMTgxMzExMThaMGwxCzAJBgNVBAYTAlVTMRcwFQYDVQQI
DA5Ob3J0aCBDYXJvbGluYTEQMA4GA1UECgwHRk9SRU1BTjEPMA0GA1UECwwGUFVQ
UEVUMSEwHwYDVQQDDBhrYXRlbGxvLmVkc29ubWFubmVycy5jb20wggIiMA0GCSqG
SIb3DQEBAQUAA4ICDwAwggIKAoICAQCjuUVc9Rdz6GesOWyUZqjGxajkm2hHSz3M
6ydDipz9+tcr8BEDYMNjn3Z7TxCK8WfAeKMCf9ghROyVlMWUip46KirVwZ5N16RD
+dVgO2c3rCZN5tfQ7ZCBVTP2l2cfBFfTfmjPlXny8RMEVjSa/nPielXnGswaD8/0
WtZsUWJwOuFPinbBtc0GeL6DK6DvQfhbN77ED9ppgSYpqigmuqy1wE5S9xnBVgFI
D5+J5TAqReyK7ICXJLs1cCnx6JP45agc443mntFWLn0sttYzdf/2kWnJZgnnlLTe
pfwdfcMNhhM0IyL5ozlPP/GHfdh/0HinMxa4NLHwD4pxhUAPRDHRymEnLoP1oHxl
CmON/Yd36VUBOwamJa3V+lLi0IRjHGYRXKDGYaDKQ5tjZ+W68lcBhUv8ddZLrSR4
bBQ52t1D7Ri5wjfnzKfkxvb1oLLaXBPgshPo5kmlyZ7YcXSoNm5Ggv3SJj9cHiig
kauqYKrXgWcoAx/EoGDKrGAn0+zTnSt+NNcpI8nrEnNksdO6ohi3ibJTtgr3N8Me
VgmUiXlUVWD4hcquCfnWnav7BqoH0yyY5EZtIdfBPCqjk4fzIReqw+kt8QrvpD86
5yQ6X+HvN0p30Pu1bzvcBfcXQt7VkG7LUloL8Y8PNeWhd8isJ9noABfRaeq2a2TU
BMe8F7LRJQIDAQABo4IBjzCCAYswCQYDVR0TBAIwADALBgNVHQ8EBAMCBaAwHQYD
VR0lBBYwFAYIKwYBBQUHAwEGCCsGAQUFBwMCMBEGCWCGSAGG+EIBAQQEAwIHgDA1
BglghkgBhvhCAQ0EKBYmS2F0ZWxsbyBTU0wgVG9vbCBHZW5lcmF0ZWQgQ2VydGlm
aWNhdGUwHQYDVR0OBBYEFDt7TG03Th8pdEIR+ykYjmc9CEH+MIHDBgNVHSMEgbsw
gbiAFIq4xzonJfaXtKRWjELRq8KuN7mdoYGJpIGGMIGDMQswCQYDVQQGEwJVUzEX
MBUGA1UECAwOTm9ydGggQ2Fyb2xpbmExEDAOBgNVBAcMB1JhbGVpZ2gxEDAOBgNV
BAoMB0thdGVsbG8xFDASBgNVBAsMC1NvbWVPcmdVbml0MSEwHwYDVQQDDBhrYXRl
bGxvLmVkc29ubWFubmVycy5jb22CFDW+eftaquossMKGRg2Avq/UWMyDMCMGA1Ud
EQQcMBqCGGthdGVsbG8uZWRzb25tYW5uZXJzLmNvbTANBgkqhkiG9w0BAQsFAAOC
AgEAaOyzqmuXrqhaK2/3qG+/qFChQcbGAcz7VJZAXDmp1YQPTg3ZwtoBjV0CIDXS
+U1VWTch44ne3ULCQa+mYb99lbXR3DsiLe+sTbN2yRuUey4KNiet+sC9sjWcrv5U
TsOhZ4PxW9+gwTbIGSv2jGMaAd3q098oFLXBA9w8zBGFWW3vdpJRdSCtEceKZxJV
PC6qowuDS5KC8RTQk9cdd0ypdcySzD9q1twrj6fJiuYc1fjTAwsOaKBw2r1DMy/W
2zB/w38cTMBR+J0KWklmS75Gi/pBu7E4ISn7cHVWh0wNEc44puiudslxpLCTjan9
ZuBkUTRqeDFwvfVnv44y5HARIqfFKeZd4I19xwpf3wxcfVDgFDl80TEC4ysBXE3C
5oDQ0NJaeJEKSXaqjx7BKS4705AFNsp+UdlJgswXrCu8Lp0pqk9fdIpzt8Qp7Kqs
LVlqqHiMy/93yOllUccxmYecYLPeAY8OeYV7LmCBMHzCiOaxz6d1vaBIaPlHEl20
vBv0Jk43IrI1CaepdoV550HuHXrQ2Z7OY6JEO3JoIYmXj9QGJcwTNCnFQjBIhHXf
Qhy3NaAGYXYxJa0dNeEeziuVi/YyMBuFQyZ0UNrhZcqNfbPfw9kHktaGBWgIElkF
3IxHMiISyc8zyHouHui0WBEY90Mpz4rgjIdleax8iuJIdUY=
-----END CERTIFICATE-----
